target datalayout = "e-m:e-p270:32:32-p271:32:32-p272:64:64-i64:64-i128:128-f80:128-n8:16:32:64-S128"
target triple = "x86_64-pc-linux-gnu"

%struct._h450_op_t = type { i32, ptr, ptr }
%struct._h450_err_t = type { i32, ptr }

@h450_arg_handle = internal global ptr null, align 8
@h450_res_handle = internal global ptr null, align 8
@h450_err_handle = internal global ptr null, align 8
@.str.603 = private unnamed_addr constant [19 x i8] c"h450.ros.local.arg\00", align 1
@.str.605 = private unnamed_addr constant [19 x i8] c"h450.ros.local.res\00", align 1
@.str.609 = private unnamed_addr constant [19 x i8] c"h450.ros.local.err\00", align 1

; Function Attrs: null_pointer_is_valid sspstrong uwtable
define hidden void @proto_reg_handoff_h450() #0 {
  %1 = alloca i32, align 4
  call void @llvm.lifetime.start.p0(i64 4, ptr %1) #6
  store i32 0, ptr %1, align 4
  br label %2

2:                                                ; preds = %18, %0
  %3 = load i32, ptr %1, align 4
  %4 = icmp slt i32 %3, 58
  br i1 %4, label %5, label %21

5:                                                ; preds = %2
  %6 = load i32, ptr %1, align 4
  %7 = sext i32 %6 to i64
  %8 = getelementptr [58 x %struct._h450_op_t], ptr @h450_op_tab, i64 0, i64 %7
  %9 = getelementptr inbounds nuw %struct._h450_op_t, ptr %8, i32 0, i32 0
  %10 = load i32, ptr %9, align 8
  %11 = load ptr, ptr @h450_arg_handle, align 8
  call void @dissector_add_uint(ptr noundef @.str.603, i32 noundef %10, ptr noundef %11)
  %12 = load i32, ptr %1, align 4
  %13 = sext i32 %12 to i64
  %14 = getelementptr [58 x %struct._h450_op_t], ptr @h450_op_tab, i64 0, i64 %13
  %15 = getelementptr inbounds nuw %struct._h450_op_t, ptr %14, i32 0, i32 0
  %16 = load i32, ptr %15, align 8
  %17 = load ptr, ptr @h450_res_handle, align 8
  call void @dissector_add_uint(ptr noundef @.str.605, i32 noundef %16, ptr noundef %17)
  br label %18

18:                                               ; preds = %5
  %19 = load i32, ptr %1, align 4
  %20 = add i32 %19, 1
  store i32 %20, ptr %1, align 4
  br label %2, !llvm.loop !6

21:                                               ; preds = %2
  store i32 0, ptr %1, align 4
  br label %22

22:                                               ; preds = %32, %21
  %23 = load i32, ptr %1, align 4
  %24 = icmp slt i32 %23, 38
  br i1 %24, label %25, label %35

25:                                               ; preds = %22
  %26 = load i32, ptr %1, align 4
  %27 = sext i32 %26 to i64
  %28 = getelementptr [38 x %struct._h450_err_t], ptr @h450_err_tab, i64 0, i64 %27
  %29 = getelementptr inbounds nuw %struct._h450_err_t, ptr %28, i32 0, i32 0
  %30 = load i32, ptr %29, align 16
  %31 = load ptr, ptr @h450_err_handle, align 8
  call void @dissector_add_uint(ptr noundef @.str.609, i32 noundef %30, ptr noundef %31)
  br label %32

32:                                               ; preds = %25
  %33 = load i32, ptr %1, align 4
  %34 = add i32 %33, 1
  store i32 %34, ptr %1, align 4
  br label %22, !llvm.loop !8

35:                                               ; preds = %22
  call void @llvm.lifetime.end.p0(i64 4, ptr %1) #6
  ret void
}