; Function Attrs: null_pointer_is_valid sspstrong uwtable
define hidden void @proto_reg_handoff_h450() local_unnamed_addr #0 {
  br label %1

1:                                                ; preds = %0, %1
  %indvars.iv = phi i64 [ 0, %0 ], [ %indvars.iv.next, %1 ]
  %2 = getelementptr [58 x %struct._h450_op_t], ptr @h450_op_tab, i64 0, i64 %indvars.iv
  %3 = load i32, ptr %2, align 8
  %4 = load ptr, ptr @h450_arg_handle, align 8
  tail call void @dissector_add_uint(ptr noundef nonnull @.str.603, i32 noundef %3, ptr noundef %4)
  %5 = load ptr, ptr @h450_res_handle, align 8
  tail call void @dissector_add_uint(ptr noundef nonnull @.str.605, i32 noundef %3, ptr noundef %5)
  %indvars.iv.next = add nuw nsw i64 %indvars.iv, 1
  %exitcond.not = icmp eq i64 %indvars.iv.next, 58
  br i1 %exitcond.not, label %.preheader, label %1, !llvm.loop !9

.preheader:                                       ; preds = %1, %.preheader
  %indvars.iv10 = phi i64 [ %indvars.iv.next11, %.preheader ], [ 0, %1 ]
  %6 = getelementptr [38 x %struct._h450_err_t], ptr @h450_err_tab, i64 0, i64 %indvars.iv10
  %7 = load i32, ptr %6, align 16
  %8 = load ptr, ptr @h450_err_handle, align 8
  tail call void @dissector_add_uint(ptr noundef nonnull @.str.609, i32 noundef %7, ptr noundef %8)
  %indvars.iv.next11 = add nuw nsw i64 %indvars.iv10, 1
  %exitcond13.not = icmp eq i64 %indvars.iv.next11, 38
  br i1 %exitcond13.not, label %9, label %.preheader, !llvm.loop !10

9:                                                ; preds = %.preheader
  ret void
}